; Function Attrs: mustprogress nounwind uwtable
define dso_local noundef zeroext i1 @_ZN4node22SocketAddressBlockList5ApplyERKSt10shared_ptrINS_13SocketAddressEE(ptr noundef nonnull align 8 dereferenceable(144) %this, ptr noundef nonnull align 8 dereferenceable(16) %address) local_unnamed_addr #3 align 2 {
entry:
  %mutex_ = getelementptr inbounds i8, ptr %this, i64 104
  tail call void @uv_mutex_lock(ptr noundef nonnull %mutex_) #21
  %rules_ = getelementptr inbounds i8, ptr %this, i64 24
  br label %for.cond

for.cond:                                         ; preds = %for.body, %entry
  %__begin1.sroa.0.0.in = phi ptr [ %rules_, %entry ], [ %__begin1.sroa.0.0, %for.body ]
  %__begin1.sroa.0.0 = load ptr, ptr %__begin1.sroa.0.0.in, align 8
  %cmp.i.not = icmp eq ptr %__begin1.sroa.0.0, %rules_
  br i1 %cmp.i.not, label %for.end, label %for.body

for.body:                                         ; preds = %for.cond
  %_M_storage.i.i = getelementptr inbounds i8, ptr %__begin1.sroa.0.0, i64 16
  %0 = load ptr, ptr %_M_storage.i.i, align 8
  %vtable = load ptr, ptr %0, align 8
  %vfn = getelementptr inbounds i8, ptr %vtable, i64 64
  %1 = load ptr, ptr %vfn, align 8
  %call7 = tail call noundef zeroext i1 %1(ptr noundef nonnull align 8 dereferenceable(8) %0, ptr noundef nonnull align 8 dereferenceable(16) %address) #21
  br i1 %call7, label %cleanup, label %for.cond

for.end:                                          ; preds = %for.cond
  %parent_ = getelementptr inbounds i8, ptr %this, i64 8
  %2 = load ptr, ptr %parent_, align 8
  %cmp.i3.not = icmp eq ptr %2, null
  br i1 %cmp.i3.not, label %cleanup, label %cond.true

cond.true:                                        ; preds = %for.end
  %call12 = tail call noundef zeroext i1 @_ZN4node22SocketAddressBlockList5ApplyERKSt10shared_ptrINS_13SocketAddressEE(ptr noundef nonnull align 8 dereferenceable(144) %2, ptr noundef nonnull align 8 dereferenceable(16) %address)
  br label %cleanup

cleanup:                                          ; preds = %for.body, %cond.true, %for.end
  %retval.0 = phi i1 [ %call12, %cond.true ], [ false, %for.end ], [ true, %for.body ]
  tail call void @uv_mutex_unlock(ptr noundef nonnull %mutex_) #21
  ret i1 %retval.0
}